; Function Attrs: mustprogress nofree norecurse nosync nounwind memory(readwrite, inaccessiblemem: none) uwtable
define void @_ZN10OpenSubdiv6v3_6_03Vtr8internal10Refinement31populateEdgeTagsFromParentEdgesEv(ptr nocapture noundef nonnull readonly align 8 dereferenceable(504) %0) local_unnamed_addr #10 align 2 {
  %2 = getelementptr inbounds nuw i8, ptr %0, i64 48
  %3 = load i32, ptr %2, align 8
  %4 = icmp sgt i32 %3, 0
  br i1 %4, label %.lr.ph, label %._crit_edge

.lr.ph:                                           ; preds = %1
  %5 = getelementptr inbounds nuw i8, ptr %0, i64 72
  %6 = load i32, ptr %5, align 8
  %7 = add nsw i32 %3, %6
  %8 = getelementptr inbounds nuw i8, ptr %0, i64 8
  %9 = getelementptr inbounds nuw i8, ptr %0, i64 288
  %10 = getelementptr inbounds nuw i8, ptr %0, i64 16
  %11 = sext i32 %6 to i64
  %12 = sext i32 %7 to i64
  br label %13

13:                                               ; preds = %.lr.ph, %13
  %indvars.iv = phi i64 [ %11, %.lr.ph ], [ %indvars.iv.next, %13 ]
  %14 = load ptr, ptr %8, align 8
  %15 = getelementptr inbounds nuw i8, ptr %14, i64 240
  %16 = load ptr, ptr %9, align 8
  %17 = getelementptr inbounds i32, ptr %16, i64 %indvars.iv
  %18 = load i32, ptr %17, align 4
  %19 = sext i32 %18 to i64
  %20 = load ptr, ptr %15, align 8
  %21 = getelementptr inbounds %"struct.OpenSubdiv::v3_6_0::Vtr::internal::Level::ETag", ptr %20, i64 %19
  %22 = load ptr, ptr %10, align 8
  %23 = getelementptr inbounds nuw i8, ptr %22, i64 240
  %24 = load ptr, ptr %23, align 8
  %25 = getelementptr inbounds %"struct.OpenSubdiv::v3_6_0::Vtr::internal::Level::ETag", ptr %24, i64 %indvars.iv
  %26 = load i8, ptr %21, align 1
  store i8 %26, ptr %25, align 1
  %indvars.iv.next = add nsw i64 %indvars.iv, 1
  %27 = icmp slt i64 %indvars.iv.next, %12
  br i1 %27, label %13, label %._crit_edge, !llvm.loop !68

._crit_edge:                                      ; preds = %13, %1
  ret void
}